target datalayout = "e-m:e-p270:32:32-p271:32:32-p272:64:64-i64:64-i128:128-f80:128-n8:16:32:64-S128"
target triple = "x86_64-pc-linux-gnu"

@.str.12 = private unnamed_addr constant [34 x i8] c"../openssl/test/testutil/driver.c\00", align 1
@.str.13 = private unnamed_addr constant [34 x i8] c"ret = p = OPENSSL_malloc(len + 1)\00", align 1

; Function Attrs: nounwind uwtable
define ptr @glue_strings(ptr noundef %0, ptr noundef %1) #0 {
  %3 = alloca ptr, align 8
  %4 = alloca ptr, align 8
  %5 = alloca ptr, align 8
  %6 = alloca i64, align 8
  %7 = alloca ptr, align 8
  %8 = alloca ptr, align 8
  %9 = alloca i32, align 4
  %10 = alloca i32, align 4
  store ptr %0, ptr %4, align 8, !tbaa !16
  store ptr %1, ptr %5, align 8, !tbaa !26
  call void @llvm.lifetime.start.p0(i64 8, ptr %6) #7
  store i64 0, ptr %6, align 8, !tbaa !28
  call void @llvm.lifetime.start.p0(i64 8, ptr %7) #7
  call void @llvm.lifetime.start.p0(i64 8, ptr %8) #7
  call void @llvm.lifetime.start.p0(i64 4, ptr %9) #7
  store i32 0, ptr %9, align 4, !tbaa !9
  br label %11

11:                                               ; preds = %27, %2
  %12 = load ptr, ptr %4, align 8, !tbaa !16
  %13 = load i32, ptr %9, align 4, !tbaa !9
  %14 = sext i32 %13 to i64
  %15 = getelementptr inbounds ptr, ptr %12, i64 %14
  %16 = load ptr, ptr %15, align 8, !tbaa !3
  %17 = icmp ne ptr %16, null
  br i1 %17, label %18, label %30

18:                                               ; preds = %11
  %19 = load ptr, ptr %4, align 8, !tbaa !16
  %20 = load i32, ptr %9, align 4, !tbaa !9
  %21 = sext i32 %20 to i64
  %22 = getelementptr inbounds ptr, ptr %19, i64 %21
  %23 = load ptr, ptr %22, align 8, !tbaa !3
  %24 = call i64 @strlen(ptr noundef %23) #8
  %25 = load i64, ptr %6, align 8, !tbaa !28
  %26 = add i64 %25, %24
  store i64 %26, ptr %6, align 8, !tbaa !28
  br label %27

27:                                               ; preds = %18
  %28 = load i32, ptr %9, align 4, !tbaa !9
  %29 = add nsw i32 %28, 1
  store i32 %29, ptr %9, align 4, !tbaa !9
  br label %11, !llvm.loop !30

30:                                               ; preds = %11
  %31 = load ptr, ptr %5, align 8, !tbaa !26
  %32 = icmp ne ptr %31, null
  br i1 %32, label %33, label %36

33:                                               ; preds = %30
  %34 = load i64, ptr %6, align 8, !tbaa !28
  %35 = load ptr, ptr %5, align 8, !tbaa !26
  store i64 %34, ptr %35, align 8, !tbaa !28
  br label %36

36:                                               ; preds = %33, %30
  %37 = load i64, ptr %6, align 8, !tbaa !28
  %38 = add i64 %37, 1
  %39 = call noalias ptr @CRYPTO_malloc(i64 noundef %38, ptr noundef @.str.12, i32 noundef 430)
  store ptr %39, ptr %7, align 8, !tbaa !3
  store ptr %39, ptr %8, align 8, !tbaa !3
  %40 = call i32 @test_ptr(ptr noundef @.str.12, i32 noundef 430, ptr noundef @.str.13, ptr noundef %39)
  %41 = icmp ne i32 %40, 0
  br i1 %41, label %43, label %42

42:                                               ; preds = %36
  store ptr null, ptr %3, align 8
  store i32 1, ptr %10, align 4
  br label %67

43:                                               ; preds = %36
  store i32 0, ptr %9, align 4, !tbaa !9
  br label %44

44:                                               ; preds = %62, %43
  %45 = load ptr, ptr %4, align 8, !tbaa !16
  %46 = load i32, ptr %9, align 4, !tbaa !9
  %47 = sext i32 %46 to i64
  %48 = getelementptr inbounds ptr, ptr %45, i64 %47
  %49 = load ptr, ptr %48, align 8, !tbaa !3
  %50 = icmp ne ptr %49, null
  br i1 %50, label %51, label %65

51:                                               ; preds = %44
  %52 = load ptr, ptr %7, align 8, !tbaa !3
  %53 = load ptr, ptr %4, align 8, !tbaa !16
  %54 = load i32, ptr %9, align 4, !tbaa !9
  %55 = sext i32 %54 to i64
  %56 = getelementptr inbounds ptr, ptr %53, i64 %55
  %57 = load ptr, ptr %56, align 8, !tbaa !3
  %58 = call ptr @strcpy(ptr noundef %52, ptr noundef %57) #7
  %59 = call i64 @strlen(ptr noundef %58) #8
  %60 = load ptr, ptr %7, align 8, !tbaa !3
  %61 = getelementptr inbounds nuw i8, ptr %60, i64 %59
  store ptr %61, ptr %7, align 8, !tbaa !3
  br label %62

62:                                               ; preds = %51
  %63 = load i32, ptr %9, align 4, !tbaa !9
  %64 = add nsw i32 %63, 1
  store i32 %64, ptr %9, align 4, !tbaa !9
  br label %44, !llvm.loop !31

65:                                               ; preds = %44
  %66 = load ptr, ptr %8, align 8, !tbaa !3
  store ptr %66, ptr %3, align 8
  store i32 1, ptr %10, align 4
  br label %67

67:                                               ; preds = %65, %42
  call void @llvm.lifetime.end.p0(i64 4, ptr %9) #7
  call void @llvm.lifetime.end.p0(i64 8, ptr %8) #7
  call void @llvm.lifetime.end.p0(i64 8, ptr %7) #7
  call void @llvm.lifetime.end.p0(i64 8, ptr %6) #7
  %68 = load ptr, ptr %3, align 8
  ret ptr %68
}