; Function Attrs: nounwind uwtable
define noundef ptr @glue_strings(ptr noundef readonly captures(none) %0, ptr noundef writeonly captures(address_is_null) %1) local_unnamed_addr #1 {
  %3 = load ptr, ptr %0, align 8, !tbaa !14
  %.not27 = icmp eq ptr %3, null
  br i1 %.not27, label %._crit_edge, label %.lr.ph

.lr.ph:                                           ; preds = %2, %.lr.ph
  %indvars.iv = phi i64 [ %indvars.iv.next, %.lr.ph ], [ 0, %2 ]
  %4 = phi ptr [ %8, %.lr.ph ], [ %3, %2 ]
  %.02028 = phi i64 [ %6, %.lr.ph ], [ 0, %2 ]
  %5 = tail call i64 @strlen(ptr noundef nonnull dereferenceable(1) %4) #14
  %6 = add i64 %5, %.02028
  %indvars.iv.next = add nuw nsw i64 %indvars.iv, 1
  %7 = getelementptr inbounds nuw ptr, ptr %0, i64 %indvars.iv.next
  %8 = load ptr, ptr %7, align 8, !tbaa !14
  %.not = icmp eq ptr %8, null
  br i1 %.not, label %._crit_edge, label %.lr.ph, !llvm.loop !24

._crit_edge:                                      ; preds = %.lr.ph, %2
  %.020.lcssa = phi i64 [ 0, %2 ], [ %6, %.lr.ph ]
  %.not24 = icmp eq ptr %1, null
  br i1 %.not24, label %10, label %9

9:                                                ; preds = %._crit_edge
  store i64 %.020.lcssa, ptr %1, align 8, !tbaa !25
  br label %10

10:                                               ; preds = %9, %._crit_edge
  %11 = add i64 %.020.lcssa, 1
  %12 = tail call noalias ptr @CRYPTO_malloc(i64 noundef %11, ptr noundef nonnull @.str.12, i32 noundef 430) #13
  %13 = tail call i32 @test_ptr(ptr noundef nonnull @.str.12, i32 noundef 430, ptr noundef nonnull @.str.13, ptr noundef %12) #13
  %.not25 = icmp eq i32 %13, 0
  br i1 %.not25, label %.loopexit, label %.preheader

.preheader:                                       ; preds = %10
  %14 = load ptr, ptr %0, align 8, !tbaa !14
  %.not2630 = icmp eq ptr %14, null
  br i1 %.not2630, label %.loopexit, label %.lr.ph33

.lr.ph33:                                         ; preds = %.preheader, %.lr.ph33
  %indvars.iv35 = phi i64 [ %indvars.iv.next36, %.lr.ph33 ], [ 0, %.preheader ]
  %15 = phi ptr [ %20, %.lr.ph33 ], [ %14, %.preheader ]
  %.01931 = phi ptr [ %18, %.lr.ph33 ], [ %12, %.preheader ]
  %16 = tail call ptr @strcpy(ptr noundef nonnull dereferenceable(1) %.01931, ptr noundef nonnull dereferenceable(1) %15) #13
  %17 = tail call i64 @strlen(ptr noundef nonnull dereferenceable(1) %.01931) #14
  %18 = getelementptr inbounds nuw i8, ptr %.01931, i64 %17
  %indvars.iv.next36 = add nuw nsw i64 %indvars.iv35, 1
  %19 = getelementptr inbounds nuw ptr, ptr %0, i64 %indvars.iv.next36
  %20 = load ptr, ptr %19, align 8, !tbaa !14
  %.not26 = icmp eq ptr %20, null
  br i1 %.not26, label %.loopexit, label %.lr.ph33, !llvm.loop !27

.loopexit:                                        ; preds = %.lr.ph33, %.preheader, %10
  %.018 = phi ptr [ null, %10 ], [ %12, %.preheader ], [ %12, %.lr.ph33 ]
  ret ptr %.018
}